(lp0
(S'cppflags'
p1
ccopy_reg
_reconstructor
p2
(cino.utils
SpaceList
p3
c__builtin__
list
p4
(lp5
S'-mmcu=atmega328p'
p6
aS'-DF_CPU=16000000L'
p7
aS'-DARDUINO=101'
p8
aS'-I/usr/share/arduino/hardware/arduino/cores/arduino'
p9
aS'-ffunction-sections'
p10
aS'-fdata-sections'
p11
aS'-g'
p12
aS'-Os'
p13
aS'-w'
p14
aS'-I/usr/share/arduino/hardware/arduino/variants/standard'
p15
aS'-Ilib/LiquidTWI2'
p16
aS'-Ilib/DallasTemperature'
p17
aS'-Ilib/DS1307RTC'
p18
aS'-Ilib/OneWire'
p19
aS'-Ilib/Time'
p20
aS'-I/usr/share/arduino/libraries/Wire'
p21
aS'-I/usr/share/arduino/libraries/Wire/utility'
p22
aS'-I/usr/share/arduino/hardware/arduino/cores/arduino'
p23
atp24
Rp25
tp26
a(S'version.txt'
p27
S'/usr/share/arduino/lib/version.txt'
p28
tp29
a(S'used_libs'
p30
(lp31
S'lib/LiquidTWI2'
p32
aS'lib/DallasTemperature'
p33
aS'lib/DS1307RTC'
p34
aS'lib/OneWire'
p35
aS'lib/Time'
p36
aS'/usr/share/arduino/libraries/Wire'
p37
aS'/usr/share/arduino/hardware/arduino/cores/arduino'
p38
atp39
a(S'cxx'
p40
S'/usr/bin/avr-g++'
p41
tp42
a(S'make'
p43
S'/usr/bin/make'
p44
tp45
a(S'cflags'
p46
g2
(g3
g4
(lp47
tp48
Rp49
tp50
a(S'build_dir'
p51
S'.build/atmega328'
p52
tp53
a(S'arduino_core_dir'
p54
g38
tp55
a(S'boards.txt'
p56
S'/usr/share/arduino/hardware/arduino/boards.txt'
p57
tp58
a(S'cxxflags'
p59
g2
(g3
g4
(lp60
S'-fno-exceptions'
p61
atp62
Rp63
tp64
a(S'arduino_variants_dir'
p65
S'/usr/share/arduino/hardware/arduino/variants'
p66
tp67
a(S'ar'
p68
S'/usr/bin/avr-ar'
p69
tp70
a(S'names'
p71
(dp72
S'cpp'
p73
S'%s.cpp'
p74
sS'obj'
p75
S'%s.o'
p76
sS'deps'
p77
S'%s.d'
p78
sS'lib'
p79
S'lib%s.a'
p80
stp81
a(S'deps'
p82
g2
(g3
g4
(lp83
S'.build/atmega328/src/dependencies.d'
p84
aS'.build/atmega328/arduino/dependencies.d'
p85
aS'.build/atmega328/LiquidTWI2/dependencies.d'
p86
aS'.build/atmega328/DallasTemperature/dependencies.d'
p87
aS'.build/atmega328/OneWire/dependencies.d'
p88
aS'.build/atmega328/Wire/dependencies.d'
p89
aS'.build/atmega328/DS1307RTC/dependencies.d'
p90
aS'.build/atmega328/Time/dependencies.d'
p91
atp92
Rp93
tp94
a(S'ldflags'
p95
g2
(g3
g4
(lp96
g6
aS'-Wl,-Os'
p97
aS'-Wl,--gc-sections'
p98
atp99
Rp100
tp101
a(S'arduino_libraries_dir'
p102
S'/usr/share/arduino/libraries'
p103
tp104
a(S'arduino_lib_version'
p105
g2
(cino.environment
Version
p106
c__builtin__
tuple
p107
(I1
I0
I1
tp108
tp109
Rp110
tp111
a(S'objcopy'
p112
S'/usr/bin/avr-objcopy'
p113
tp114
a(S'board_models'
p115
cino.environment
BoardModels
p116
((lp117
(lp118
S'uno'
p119
a(dp120
S'build'
p121
(dp122
S'core'
p123
S'arduino'
p124
sS'mcu'
p125
S'atmega328p'
p126
sS'f_cpu'
p127
S'16000000L'
p128
sS'variant'
p129
S'standard'
p130
ssS'bootloader'
p131
(dp132
S'extended_fuses'
p133
S'0x05'
p134
sS'high_fuses'
p135
S'0xde'
p136
sS'low_fuses'
p137
S'0xff'
p138
sS'lock_bits'
p139
S'0x0F'
p140
sS'file'
p141
S'optiboot_atmega328.hex'
p142
sS'path'
p143
S'optiboot'
p144
sS'unlock_bits'
p145
S'0x3F'
p146
ssS'upload'
p147
(dp148
S'protocol'
p149
S'arduino'
p150
sS'maximum_size'
p151
S'32256'
p152
sS'speed'
p153
S'115200'
p154
ssS'name'
p155
S'Arduino Uno'
p156
saa(lp157
S'atmega328'
p158
a(dp159
S'build'
p160
(dp161
S'core'
p162
S'arduino'
p163
sS'mcu'
p164
S'atmega328p'
p165
sS'f_cpu'
p166
S'16000000L'
p167
sS'variant'
p168
S'standard'
p169
ssS'bootloader'
p170
(dp171
S'extended_fuses'
p172
S'0x05'
p173
sS'high_fuses'
p174
S'0xDA'
p175
sS'low_fuses'
p176
S'0xFF'
p177
sS'lock_bits'
p178
S'0x0F'
p179
sS'file'
p180
S'ATmegaBOOT_168_atmega328.hex'
p181
sS'path'
p182
S'atmega'
p183
sS'unlock_bits'
p184
S'0x3F'
p185
ssS'upload'
p186
(dp187
S'protocol'
p188
S'arduino'
p189
sS'maximum_size'
p190
S'30720'
p191
sS'speed'
p192
S'57600'
p193
ssS'name'
p194
S'Arduino Duemilanove w/ ATmega328'
p195
saa(lp196
S'diecimila'
p197
a(dp198
S'build'
p199
(dp200
S'core'
p201
S'arduino'
p202
sS'mcu'
p203
S'atmega168'
p204
sS'f_cpu'
p205
S'16000000L'
p206
sS'variant'
p207
S'standard'
p208
ssS'bootloader'
p209
(dp210
S'extended_fuses'
p211
S'0x00'
p212
sS'high_fuses'
p213
S'0xdd'
p214
sS'low_fuses'
p215
S'0xff'
p216
sS'lock_bits'
p217
S'0x0F'
p218
sS'file'
p219
S'ATmegaBOOT_168_diecimila.hex'
p220
sS'path'
p221
S'atmega'
p222
sS'unlock_bits'
p223
S'0x3F'
p224
ssS'upload'
p225
(dp226
S'protocol'
p227
S'arduino'
p228
sS'maximum_size'
p229
S'14336'
p230
sS'speed'
p231
S'19200'
p232
ssS'name'
p233
S'Arduino Diecimila or Duemilanove w/ ATmega168'
p234
saa(lp235
S'nano328'
p236
a(dp237
S'build'
p238
(dp239
S'core'
p240
S'arduino'
p241
sS'mcu'
p242
S'atmega328p'
p243
sS'f_cpu'
p244
S'16000000L'
p245
sS'variant'
p246
S'eightanaloginputs'
p247
ssS'bootloader'
p248
(dp249
S'extended_fuses'
p250
S'0x05'
p251
sS'high_fuses'
p252
S'0xDA'
p253
sS'low_fuses'
p254
S'0xFF'
p255
sS'lock_bits'
p256
S'0x0F'
p257
sS'file'
p258
S'ATmegaBOOT_168_atmega328.hex'
p259
sS'path'
p260
S'atmega'
p261
sS'unlock_bits'
p262
S'0x3F'
p263
ssS'upload'
p264
(dp265
S'protocol'
p266
S'arduino'
p267
sS'maximum_size'
p268
S'30720'
p269
sS'speed'
p270
S'57600'
p271
ssS'name'
p272
S'Arduino Nano w/ ATmega328'
p273
saa(lp274
S'nano'
p275
a(dp276
S'build'
p277
(dp278
S'core'
p279
S'arduino'
p280
sS'mcu'
p281
S'atmega168'
p282
sS'f_cpu'
p283
S'16000000L'
p284
sS'variant'
p285
S'eightanaloginputs'
p286
ssS'bootloader'
p287
(dp288
S'extended_fuses'
p289
S'0x00'
p290
sS'high_fuses'
p291
S'0xdd'
p292
sS'low_fuses'
p293
S'0xff'
p294
sS'lock_bits'
p295
S'0x0F'
p296
sS'file'
p297
S'ATmegaBOOT_168_diecimila.hex'
p298
sS'path'
p299
S'atmega'
p300
sS'unlock_bits'
p301
S'0x3F'
p302
ssS'upload'
p303
(dp304
S'protocol'
p305
S'arduino'
p306
sS'maximum_size'
p307
S'14336'
p308
sS'speed'
p309
S'19200'
p310
ssS'name'
p311
S'Arduino Nano w/ ATmega168'
p312
saa(lp313
S'mega2560'
p314
a(dp315
S'build'
p316
(dp317
S'core'
p318
S'arduino'
p319
sS'mcu'
p320
S'atmega2560'
p321
sS'f_cpu'
p322
S'16000000L'
p323
sS'variant'
p324
S'mega'
p325
ssS'bootloader'
p326
(dp327
S'extended_fuses'
p328
S'0xFD'
p329
sS'high_fuses'
p330
S'0xD8'
p331
sS'low_fuses'
p332
S'0xFF'
p333
sS'lock_bits'
p334
S'0x0F'
p335
sS'file'
p336
S'stk500boot_v2_mega2560.hex'
p337
sS'path'
p338
S'stk500v2'
p339
sS'unlock_bits'
p340
S'0x3F'
p341
ssS'upload'
p342
(dp343
S'protocol'
p344
S'stk500v2'
p345
sS'maximum_size'
p346
S'258048'
p347
sS'speed'
p348
S'115200'
p349
ssS'name'
p350
S'Arduino Mega 2560 or Mega ADK'
p351
saa(lp352
S'mega'
p353
a(dp354
S'build'
p355
(dp356
S'core'
p357
S'arduino'
p358
sS'mcu'
p359
S'atmega1280'
p360
sS'f_cpu'
p361
S'16000000L'
p362
sS'variant'
p363
S'mega'
p364
ssS'bootloader'
p365
(dp366
S'extended_fuses'
p367
S'0xF5'
p368
sS'high_fuses'
p369
S'0xDA'
p370
sS'low_fuses'
p371
S'0xFF'
p372
sS'lock_bits'
p373
S'0x0F'
p374
sS'file'
p375
S'ATmegaBOOT_168_atmega1280.hex'
p376
sS'path'
p377
S'atmega'
p378
sS'unlock_bits'
p379
S'0x3F'
p380
ssS'upload'
p381
(dp382
S'protocol'
p383
S'arduino'
p384
sS'maximum_size'
p385
S'126976'
p386
sS'speed'
p387
S'57600'
p388
ssS'name'
p389
S'Arduino Mega (ATmega1280)'
p390
saa(lp391
S'leonardo'
p392
a(dp393
S'build'
p394
(dp395
S'core'
p396
S'arduino'
p397
sS'f_cpu'
p398
S'16000000L'
p399
sS'vid'
p400
S'0x2341'
p401
sS'pid'
p402
S'0x8036'
p403
sS'variant'
p404
S'leonardo'
p405
sS'mcu'
p406
S'atmega32u4'
p407
ssS'bootloader'
p408
(dp409
S'extended_fuses'
p410
S'0xcb'
p411
sS'high_fuses'
p412
S'0xd8'
p413
sS'low_fuses'
p414
S'0xff'
p415
sS'lock_bits'
p416
S'0x2F'
p417
sS'file'
p418
S'Caterina-Leonardo.hex'
p419
sS'path'
p420
S'caterina'
p421
sS'unlock_bits'
p422
S'0x3F'
p423
ssS'upload'
p424
(dp425
S'protocol'
p426
S'avr109'
p427
sS'maximum_size'
p428
S'28672'
p429
sS'speed'
p430
S'57600'
p431
sS'disable_flushing'
p432
S'true'
p433
ssS'name'
p434
S'Arduino Leonardo'
p435
saa(lp436
S'mini328'
p437
a(dp438
S'build'
p439
(dp440
S'core'
p441
S'arduino'
p442
sS'mcu'
p443
S'atmega328p'
p444
sS'f_cpu'
p445
S'16000000L'
p446
sS'variant'
p447
S'eightanaloginputs'
p448
ssS'bootloader'
p449
(dp450
S'extended_fuses'
p451
S'0x05'
p452
sS'high_fuses'
p453
S'0xd8'
p454
sS'low_fuses'
p455
S'0xff'
p456
sS'lock_bits'
p457
S'0x0F'
p458
sS'file'
p459
S'optiboot_atmega328-Mini.hex'
p460
sS'path'
p461
S'optiboot'
p462
sS'unlock_bits'
p463
S'0x3F'
p464
ssS'upload'
p465
(dp466
S'protocol'
p467
S'arduino'
p468
sS'maximum_size'
p469
S'28672'
p470
sS'speed'
p471
S'115200'
p472
ssS'name'
p473
S'Arduino Mini w/ ATmega328'
p474
saa(lp475
S'mini'
p476
a(dp477
S'build'
p478
(dp479
S'core'
p480
S'arduino'
p481
sS'mcu'
p482
S'atmega168'
p483
sS'f_cpu'
p484
S'16000000L'
p485
sS'variant'
p486
S'eightanaloginputs'
p487
ssS'bootloader'
p488
(dp489
S'extended_fuses'
p490
S'0x00'
p491
sS'high_fuses'
p492
S'0xdd'
p493
sS'low_fuses'
p494
S'0xff'
p495
sS'lock_bits'
p496
S'0x0F'
p497
sS'file'
p498
S'ATmegaBOOT_168_ng.hex'
p499
sS'path'
p500
S'atmega'
p501
sS'unlock_bits'
p502
S'0x3F'
p503
ssS'upload'
p504
(dp505
S'protocol'
p506
S'arduino'
p507
sS'maximum_size'
p508
S'14336'
p509
sS'speed'
p510
S'19200'
p511
ssS'name'
p512
S'Arduino Mini w/ ATmega168'
p513
saa(lp514
S'ethernet'
p515
a(dp516
S'build'
p517
(dp518
S'variant'
p519
S'standard'
p520
sS'mcu'
p521
S'atmega328p'
p522
sS'f_cpu'
p523
S'16000000L'
p524
sS'core'
p525
S'arduino'
p526
ssS'bootloader'
p527
(dp528
S'extended_fuses'
p529
S'0x05'
p530
sS'high_fuses'
p531
S'0xde'
p532
sS'low_fuses'
p533
S'0xff'
p534
sS'lock_bits'
p535
S'0x0F'
p536
sS'file'
p537
S'optiboot_atmega328.hex'
p538
sS'path'
p539
S'optiboot'
p540
sS'unlock_bits'
p541
S'0x3F'
p542
ssS'upload'
p543
(dp544
S'protocol'
p545
S'arduino'
p546
sS'maximum_size'
p547
S'32256'
p548
sS'speed'
p549
S'115200'
p550
ssS'name'
p551
S'Arduino Ethernet'
p552
saa(lp553
S'fio'
p554
a(dp555
S'build'
p556
(dp557
S'core'
p558
S'arduino'
p559
sS'mcu'
p560
S'atmega328p'
p561
sS'f_cpu'
p562
S'8000000L'
p563
sS'variant'
p564
S'eightanaloginputs'
p565
ssS'bootloader'
p566
(dp567
S'extended_fuses'
p568
S'0x05'
p569
sS'high_fuses'
p570
S'0xDA'
p571
sS'low_fuses'
p572
S'0xFF'
p573
sS'lock_bits'
p574
S'0x0F'
p575
sS'file'
p576
S'ATmegaBOOT_168_atmega328_pro_8MHz.hex'
p577
sS'path'
p578
S'arduino:atmega'
p579
sS'unlock_bits'
p580
S'0x3F'
p581
ssS'upload'
p582
(dp583
S'protocol'
p584
S'arduino'
p585
sS'maximum_size'
p586
S'30720'
p587
sS'speed'
p588
S'57600'
p589
ssS'name'
p590
S'Arduino Fio'
p591
saa(lp592
S'bt328'
p593
a(dp594
S'build'
p595
(dp596
S'core'
p597
S'arduino'
p598
sS'mcu'
p599
S'atmega328p'
p600
sS'f_cpu'
p601
S'16000000L'
p602
sS'variant'
p603
S'eightanaloginputs'
p604
ssS'bootloader'
p605
(dp606
S'extended_fuses'
p607
S'0x05'
p608
sS'high_fuses'
p609
S'0xd8'
p610
sS'low_fuses'
p611
S'0xff'
p612
sS'lock_bits'
p613
S'0x0F'
p614
sS'file'
p615
S'ATmegaBOOT_168_atmega328_bt.hex'
p616
sS'path'
p617
S'bt'
p618
sS'unlock_bits'
p619
S'0x3F'
p620
ssS'upload'
p621
(dp622
S'protocol'
p623
S'arduino'
p624
sS'maximum_size'
p625
S'28672'
p626
sS'speed'
p627
S'19200'
p628
sS'disable_flushing'
p629
S'true'
p630
ssS'name'
p631
S'Arduino BT w/ ATmega328'
p632
saa(lp633
S'bt'
p634
a(dp635
S'build'
p636
(dp637
S'core'
p638
S'arduino'
p639
sS'mcu'
p640
S'atmega168'
p641
sS'f_cpu'
p642
S'16000000L'
p643
sS'variant'
p644
S'eightanaloginputs'
p645
ssS'bootloader'
p646
(dp647
S'extended_fuses'
p648
S'0x00'
p649
sS'high_fuses'
p650
S'0xdd'
p651
sS'low_fuses'
p652
S'0xff'
p653
sS'lock_bits'
p654
S'0x0F'
p655
sS'file'
p656
S'ATmegaBOOT_168.hex'
p657
sS'path'
p658
S'bt'
p659
sS'unlock_bits'
p660
S'0x3F'
p661
ssS'upload'
p662
(dp663
S'protocol'
p664
S'arduino'
p665
sS'maximum_size'
p666
S'14336'
p667
sS'speed'
p668
S'19200'
p669
sS'disable_flushing'
p670
S'true'
p671
ssS'name'
p672
S'Arduino BT w/ ATmega168'
p673
saa(lp674
S'lilypad328'
p675
a(dp676
S'build'
p677
(dp678
S'core'
p679
S'arduino'
p680
sS'mcu'
p681
S'atmega328p'
p682
sS'f_cpu'
p683
S'8000000L'
p684
sS'variant'
p685
S'standard'
p686
ssS'bootloader'
p687
(dp688
S'extended_fuses'
p689
S'0x05'
p690
sS'high_fuses'
p691
S'0xDA'
p692
sS'low_fuses'
p693
S'0xFF'
p694
sS'lock_bits'
p695
S'0x0F'
p696
sS'file'
p697
S'ATmegaBOOT_168_atmega328_pro_8MHz.hex'
p698
sS'path'
p699
S'atmega'
p700
sS'unlock_bits'
p701
S'0x3F'
p702
ssS'upload'
p703
(dp704
S'protocol'
p705
S'arduino'
p706
sS'maximum_size'
p707
S'30720'
p708
sS'speed'
p709
S'57600'
p710
ssS'name'
p711
S'LilyPad Arduino w/ ATmega328'
p712
saa(lp713
S'lilypad'
p714
a(dp715
S'build'
p716
(dp717
S'core'
p718
S'arduino'
p719
sS'mcu'
p720
S'atmega168'
p721
sS'f_cpu'
p722
S'8000000L'
p723
sS'variant'
p724
S'standard'
p725
ssS'bootloader'
p726
(dp727
S'extended_fuses'
p728
S'0x00'
p729
sS'high_fuses'
p730
S'0xdd'
p731
sS'low_fuses'
p732
S'0xe2'
p733
sS'lock_bits'
p734
S'0x0F'
p735
sS'file'
p736
S'LilyPadBOOT_168.hex'
p737
sS'path'
p738
S'lilypad'
p739
sS'unlock_bits'
p740
S'0x3F'
p741
ssS'upload'
p742
(dp743
S'protocol'
p744
S'arduino'
p745
sS'maximum_size'
p746
S'14336'
p747
sS'speed'
p748
S'19200'
p749
ssS'name'
p750
S'LilyPad Arduino w/ ATmega168'
p751
saa(lp752
S'pro5v328'
p753
a(dp754
S'build'
p755
(dp756
S'core'
p757
S'arduino'
p758
sS'mcu'
p759
S'atmega328p'
p760
sS'f_cpu'
p761
S'16000000L'
p762
sS'variant'
p763
S'standard'
p764
ssS'bootloader'
p765
(dp766
S'extended_fuses'
p767
S'0x05'
p768
sS'high_fuses'
p769
S'0xDA'
p770
sS'low_fuses'
p771
S'0xFF'
p772
sS'lock_bits'
p773
S'0x0F'
p774
sS'file'
p775
S'ATmegaBOOT_168_atmega328.hex'
p776
sS'path'
p777
S'atmega'
p778
sS'unlock_bits'
p779
S'0x3F'
p780
ssS'upload'
p781
(dp782
S'protocol'
p783
S'arduino'
p784
sS'maximum_size'
p785
S'30720'
p786
sS'speed'
p787
S'57600'
p788
ssS'name'
p789
S'Arduino Pro or Pro Mini (5V, 16 MHz) w/ ATmega328'
p790
saa(lp791
S'pro5v'
p792
a(dp793
S'build'
p794
(dp795
S'core'
p796
S'arduino'
p797
sS'mcu'
p798
S'atmega168'
p799
sS'f_cpu'
p800
S'16000000L'
p801
sS'variant'
p802
S'standard'
p803
ssS'bootloader'
p804
(dp805
S'extended_fuses'
p806
S'0x00'
p807
sS'high_fuses'
p808
S'0xdd'
p809
sS'low_fuses'
p810
S'0xff'
p811
sS'lock_bits'
p812
S'0x0F'
p813
sS'file'
p814
S'ATmegaBOOT_168_diecimila.hex'
p815
sS'path'
p816
S'atmega'
p817
sS'unlock_bits'
p818
S'0x3F'
p819
ssS'upload'
p820
(dp821
S'protocol'
p822
S'arduino'
p823
sS'maximum_size'
p824
S'14336'
p825
sS'speed'
p826
S'19200'
p827
ssS'name'
p828
S'Arduino Pro or Pro Mini (5V, 16 MHz) w/ ATmega168'
p829
saa(lp830
S'pro328'
p831
a(dp832
S'build'
p833
(dp834
S'core'
p835
S'arduino'
p836
sS'mcu'
p837
S'atmega328p'
p838
sS'f_cpu'
p839
S'8000000L'
p840
sS'variant'
p841
S'standard'
p842
ssS'bootloader'
p843
(dp844
S'extended_fuses'
p845
S'0x05'
p846
sS'high_fuses'
p847
S'0xDA'
p848
sS'low_fuses'
p849
S'0xFF'
p850
sS'lock_bits'
p851
S'0x0F'
p852
sS'file'
p853
S'ATmegaBOOT_168_atmega328_pro_8MHz.hex'
p854
sS'path'
p855
S'atmega'
p856
sS'unlock_bits'
p857
S'0x3F'
p858
ssS'upload'
p859
(dp860
S'protocol'
p861
S'arduino'
p862
sS'maximum_size'
p863
S'30720'
p864
sS'speed'
p865
S'57600'
p866
ssS'name'
p867
S'Arduino Pro or Pro Mini (3.3V, 8 MHz) w/ ATmega328'
p868
saa(lp869
S'pro'
p870
a(dp871
S'build'
p872
(dp873
S'core'
p874
S'arduino'
p875
sS'mcu'
p876
S'atmega168'
p877
sS'f_cpu'
p878
S'8000000L'
p879
sS'variant'
p880
S'standard'
p881
ssS'bootloader'
p882
(dp883
S'extended_fuses'
p884
S'0x00'
p885
sS'high_fuses'
p886
S'0xdd'
p887
sS'low_fuses'
p888
S'0xc6'
p889
sS'lock_bits'
p890
S'0x0F'
p891
sS'file'
p892
S'ATmegaBOOT_168_pro_8MHz.hex'
p893
sS'path'
p894
S'atmega'
p895
sS'unlock_bits'
p896
S'0x3F'
p897
ssS'upload'
p898
(dp899
S'protocol'
p900
S'arduino'
p901
sS'maximum_size'
p902
S'14336'
p903
sS'speed'
p904
S'19200'
p905
ssS'name'
p906
S'Arduino Pro or Pro Mini (3.3V, 8 MHz) w/ ATmega168'
p907
saa(lp908
S'atmega168'
p909
a(dp910
S'build'
p911
(dp912
S'core'
p913
S'arduino'
p914
sS'mcu'
p915
S'atmega168'
p916
sS'f_cpu'
p917
S'16000000L'
p918
sS'variant'
p919
S'standard'
p920
ssS'bootloader'
p921
(dp922
S'extended_fuses'
p923
S'0x00'
p924
sS'high_fuses'
p925
S'0xdd'
p926
sS'low_fuses'
p927
S'0xff'
p928
sS'lock_bits'
p929
S'0x0F'
p930
sS'file'
p931
S'ATmegaBOOT_168_ng.hex'
p932
sS'path'
p933
S'atmega'
p934
sS'unlock_bits'
p935
S'0x3F'
p936
ssS'upload'
p937
(dp938
S'protocol'
p939
S'arduino'
p940
sS'maximum_size'
p941
S'14336'
p942
sS'speed'
p943
S'19200'
p944
ssS'name'
p945
S'Arduino NG or older w/ ATmega168'
p946
saa(lp947
S'atmega8'
p948
a(dp949
S'build'
p950
(dp951
S'core'
p952
S'arduino'
p953
sS'mcu'
p954
S'atmega8'
p955
sS'f_cpu'
p956
S'16000000L'
p957
sS'variant'
p958
S'standard'
p959
ssS'bootloader'
p960
(dp961
S'high_fuses'
p962
S'0xca'
p963
sS'low_fuses'
p964
S'0xdf'
p965
sS'lock_bits'
p966
S'0x0F'
p967
sS'file'
p968
S'ATmegaBOOT.hex'
p969
sS'path'
p970
S'atmega8'
p971
sS'unlock_bits'
p972
S'0x3F'
p973
ssS'upload'
p974
(dp975
S'protocol'
p976
S'arduino'
p977
sS'maximum_size'
p978
S'7168'
p979
sS'speed'
p980
S'19200'
p981
ssS'name'
p982
S'Arduino NG or older w/ ATmega8'
p983
saatp984
Rp985
(dp986
S'default'
p987
S'uno'
p988
sbtp989
a(S'cc'
p990
S'/usr/bin/avr-gcc'
p991
tp992
a.